; Function Attrs: nounwind uwtable
define range(i32 -2147483648, 2) i32 @av_opt_is_set_to_default_by_name(ptr noundef %0, ptr noundef %1, i32 noundef %2) local_unnamed_addr #2 {
  %4 = alloca ptr, align 8
  call void @llvm.lifetime.start.p0(i64 8, ptr nonnull %4) #18
  %.not = icmp eq ptr %0, null
  br i1 %.not, label %10, label %5

5:                                                ; preds = %3
  %6 = call ptr @av_opt_find2(ptr noundef nonnull %0, ptr noundef %1, ptr noundef null, i32 noundef 0, i32 noundef %2, ptr noundef nonnull %4)
  %.not8 = icmp eq ptr %6, null
  br i1 %.not8, label %10, label %7

7:                                                ; preds = %5
  %8 = load ptr, ptr %4, align 8, !tbaa !19
  %9 = call i32 @av_opt_is_set_to_default(ptr noundef %8, ptr noundef nonnull %6)
  br label %10

10:                                               ; preds = %5, %3, %7
  %.0 = phi i32 [ %9, %7 ], [ -22, %3 ], [ -1414549496, %5 ]
  call void @llvm.lifetime.end.p0(i64 8, ptr nonnull %4) #18
  ret i32 %.0
}